; Function Attrs: nofree norecurse nounwind memory(argmem: readwrite, inaccessiblemem: readwrite) uwtable
define internal void @tracker_constructor(ptr noundef initializes((144, 148), (152, 168)) %0) #8 {
  %2 = getelementptr inbounds nuw i8, ptr %0, i64 144
  store i32 1, ptr %2, align 8, !tbaa !37
  %3 = getelementptr inbounds nuw i8, ptr %0, i64 152
  %4 = getelementptr inbounds nuw i8, ptr %0, i64 168
  tail call void @llvm.memset.p0.i64(ptr noundef nonnull align 8 dereferenceable(16) %3, i8 0, i64 16, i1 false)
  store volatile i8 0, ptr %4, align 8, !tbaa !63
  %5 = getelementptr inbounds nuw i8, ptr %0, i64 304
  store i8 0, ptr %5, align 8, !tbaa !43
  ret void
}